target datalayout = "e-m:e-p270:32:32-p271:32:32-p272:64:64-i64:64-i128:128-f80:128-n8:16:32:64-S128"
target triple = "x86_64-pc-linux-gnu"

@.str = private unnamed_addr constant [29 x i8] c"could not open file \22%s\22: %m\00", align 1
@pg_file_create_mode = external global i32, align 4
@.str.13 = private unnamed_addr constant [31 x i8] c"could not create file \22%s\22: %m\00", align 1
@.str.16 = private unnamed_addr constant [53 x i8] c"error while copying file range from \22%s\22 to \22%s\22: %m\00", align 1

; Function Attrs: nounwind uwtable
define internal void @copy_file_by_range(ptr noundef %0, ptr noundef %1, ptr noundef %2) #0 {
  %4 = alloca ptr, align 8
  %5 = alloca ptr, align 8
  %6 = alloca ptr, align 8
  %7 = alloca i32, align 4
  %8 = alloca i32, align 4
  %9 = alloca i64, align 8
  store ptr %0, ptr %4, align 8
  store ptr %1, ptr %5, align 8
  store ptr %2, ptr %6, align 8
  call void @llvm.lifetime.start.p0(i64 4, ptr %7) #7
  call void @llvm.lifetime.start.p0(i64 4, ptr %8) #7
  call void @llvm.lifetime.start.p0(i64 8, ptr %9) #7
  %10 = load ptr, ptr %4, align 8
  %11 = call i32 (ptr, i32, ...) @open(ptr noundef %10, i32 noundef 0, i32 noundef 0)
  store i32 %11, ptr %7, align 4
  %12 = icmp slt i32 %11, 0
  br i1 %12, label %13, label %18

13:                                               ; preds = %3
  br label %14

14:                                               ; preds = %13
  %15 = load ptr, ptr %4, align 8
  call void (i32, i32, ptr, ...) @pg_log_generic(i32 noundef 4, i32 noundef 0, ptr noundef @.str, ptr noundef %15)
  call void @exit(i32 noundef 1) #8
  unreachable

16:                                               ; No predecessors!
  br label %17

17:                                               ; preds = %16
  br label %18

18:                                               ; preds = %17, %3
  %19 = load ptr, ptr %5, align 8
  %20 = load i32, ptr @pg_file_create_mode, align 4
  %21 = call i32 (ptr, i32, ...) @open(ptr noundef %19, i32 noundef 194, i32 noundef %20)
  store i32 %21, ptr %8, align 4
  %22 = icmp slt i32 %21, 0
  br i1 %22, label %23, label %28

23:                                               ; preds = %18
  br label %24

24:                                               ; preds = %23
  %25 = load ptr, ptr %5, align 8
  call void (i32, i32, ptr, ...) @pg_log_generic(i32 noundef 4, i32 noundef 0, ptr noundef @.str.13, ptr noundef %25)
  call void @exit(i32 noundef 1) #8
  unreachable

26:                                               ; No predecessors!
  br label %27

27:                                               ; preds = %26
  br label %28

28:                                               ; preds = %27, %18
  br label %29

29:                                               ; preds = %42, %28
  %30 = load i32, ptr %7, align 4
  %31 = load i32, ptr %8, align 4
  %32 = call i64 @copy_file_range(i32 noundef %30, ptr noundef null, i32 noundef %31, ptr noundef null, i64 noundef 9223372036854775807, i32 noundef 0)
  store i64 %32, ptr %9, align 8
  %33 = load i64, ptr %9, align 8
  %34 = icmp slt i64 %33, 0
  br i1 %34, label %35, label %41

35:                                               ; preds = %29
  br label %36

36:                                               ; preds = %35
  %37 = load ptr, ptr %4, align 8
  %38 = load ptr, ptr %5, align 8
  call void (i32, i32, ptr, ...) @pg_log_generic(i32 noundef 4, i32 noundef 0, ptr noundef @.str.16, ptr noundef %37, ptr noundef %38)
  call void @exit(i32 noundef 1) #8
  unreachable

39:                                               ; No predecessors!
  br label %40

40:                                               ; preds = %39
  br label %41

41:                                               ; preds = %40, %29
  br label %42

42:                                               ; preds = %41
  %43 = load i64, ptr %9, align 8
  %44 = icmp sgt i64 %43, 0
  br i1 %44, label %29, label %45, !llvm.loop !8

45:                                               ; preds = %42
  %46 = load i32, ptr %7, align 4
  %47 = call i32 @close(i32 noundef %46)
  %48 = load i32, ptr %8, align 4
  %49 = call i32 @close(i32 noundef %48)
  %50 = load ptr, ptr %4, align 8
  %51 = load ptr, ptr %6, align 8
  call void @checksum_file(ptr noundef %50, ptr noundef %51)
  call void @llvm.lifetime.end.p0(i64 8, ptr %9) #7
  call void @llvm.lifetime.end.p0(i64 4, ptr %8) #7
  call void @llvm.lifetime.end.p0(i64 4, ptr %7) #7
  ret void
}