; Function Attrs: nounwind uwtable
define internal void @copy_file_by_range(ptr noundef %0, ptr noundef %1, ptr noundef %2) unnamed_addr #0 {
  %4 = tail call i32 (ptr, i32, ...) @open(ptr noundef %0, i32 noundef 0, i32 noundef 0) #7
  %5 = icmp slt i32 %4, 0
  br i1 %5, label %6, label %7

6:                                                ; preds = %3
  tail call void (i32, i32, ptr, ...) @pg_log_generic(i32 noundef 4, i32 noundef 0, ptr noundef nonnull @.str, ptr noundef %0) #7
  tail call void @exit(i32 noundef 1) #8
  unreachable

7:                                                ; preds = %3
  %8 = load i32, ptr @pg_file_create_mode, align 4
  %9 = tail call i32 (ptr, i32, ...) @open(ptr noundef %1, i32 noundef 194, i32 noundef %8) #7
  %10 = icmp slt i32 %9, 0
  br i1 %10, label %11, label %.preheader

11:                                               ; preds = %7
  tail call void (i32, i32, ptr, ...) @pg_log_generic(i32 noundef 4, i32 noundef 0, ptr noundef nonnull @.str.13, ptr noundef %1) #7
  tail call void @exit(i32 noundef 1) #8
  unreachable

.preheader:                                       ; preds = %7, %15
  %12 = tail call i64 @copy_file_range(i32 noundef %4, ptr noundef null, i32 noundef %9, ptr noundef null, i64 noundef 9223372036854775807, i32 noundef 0) #7
  %13 = icmp slt i64 %12, 0
  br i1 %13, label %14, label %15

14:                                               ; preds = %.preheader
  tail call void (i32, i32, ptr, ...) @pg_log_generic(i32 noundef 4, i32 noundef 0, ptr noundef nonnull @.str.16, ptr noundef %0, ptr noundef %1) #7
  tail call void @exit(i32 noundef 1) #8
  unreachable

15:                                               ; preds = %.preheader
  %.not = icmp eq i64 %12, 0
  br i1 %.not, label %16, label %.preheader, !llvm.loop !8

16:                                               ; preds = %15
  %17 = tail call i32 @close(i32 noundef %4) #7
  %18 = tail call i32 @close(i32 noundef %9) #7
  tail call fastcc void @checksum_file(ptr noundef %0, ptr noundef %2)
  ret void
}